; Function Attrs: mustprogress uwtable
define void @_ZN11ByteViewTab14setCaptureFileEP13_capture_file(ptr noundef nonnull align 8 dereferenceable(65) %0, ptr noundef %1) local_unnamed_addr #0 align 2 personality ptr @__gxx_personality_v0 {
_ZN5QListIiED2Ev.exit:
  %2 = alloca %class.QList.18, align 8
  call void @llvm.memset.p0.i64(ptr noundef nonnull align 8 dereferenceable(24) %2, i8 0, i64 24, i1 false)
  call void @_ZN11ByteViewTab20selectedFrameChangedE5QListIiE(ptr noundef nonnull align 8 dereferenceable(65) %0, ptr noundef nonnull %2)
  %3 = getelementptr inbounds i8, ptr %0, i64 40
  store ptr %1, ptr %3, align 8
  ret void
}